target datalayout = "e-m:e-p270:32:32-p271:32:32-p272:64:64-i64:64-i128:128-f80:128-n8:16:32:64-S128"
target triple = "x86_64-unknown-linux-gnu"

%struct.QIOChannelWebsock = type { %struct.QIOChannel, ptr, %struct.Buffer, %struct.Buffer, %struct.Buffer, i64, i64, %union.QIOChannelWebsockMask, i32, ptr, i32, i8 }
%struct.QIOChannel = type { %struct.Object, i32, ptr, ptr, ptr, ptr, ptr, i8 }
%struct.Object = type { ptr, ptr, ptr, i32, ptr }
%struct.Buffer = type { ptr, i64, i64, i64, ptr }
%union.QIOChannelWebsockMask = type { i32 }

@.str = private unnamed_addr constant [20 x i8] c"qio-channel-websock\00", align 1
@.str.1 = private unnamed_addr constant [107 x i8] c"/home/dtcxzyw/WorkSpace/Projects/compilers/llvm-opt-benchmark/bench/qemu/qemu/include/io/channel-websock.h\00", align 1
@__func__.QIO_CHANNEL_WEBSOCK = private unnamed_addr constant [20 x i8] c"QIO_CHANNEL_WEBSOCK\00", align 1
@.str.12 = private unnamed_addr constant [29 x i8] c"../qemu/io/channel-websock.c\00", align 1
@__func__.qio_channel_websock_writev = private unnamed_addr constant [27 x i8] c"qio_channel_websock_writev\00", align 1
@.str.65 = private unnamed_addr constant [3 x i8] c"%s\00", align 1
@.str.66 = private unnamed_addr constant [12 x i8] c"Broken pipe\00", align 1

; Function Attrs: nounwind sspstrong uwtable
define internal void @qio_channel_websock_set_watch(ptr noundef %ioc) #0 {
entry:
  %ioc.addr = alloca ptr, align 8
  %cond = alloca i32, align 4
  store ptr %ioc, ptr %ioc.addr, align 8
  store i32 0, ptr %cond, align 4
  %0 = load ptr, ptr %ioc.addr, align 8
  call void @qio_channel_websock_unset_watch(ptr noundef %0)
  %1 = load ptr, ptr %ioc.addr, align 8
  %io_err = getelementptr inbounds %struct.QIOChannelWebsock, ptr %1, i32 0, i32 9
  %2 = load ptr, ptr %io_err, align 8
  %tobool = icmp ne ptr %2, null
  br i1 %tobool, label %if.then, label %if.end

if.then:                                          ; preds = %entry
  br label %if.end12

if.end:                                           ; preds = %entry
  %3 = load ptr, ptr %ioc.addr, align 8
  %encoutput = getelementptr inbounds %struct.QIOChannelWebsock, ptr %3, i32 0, i32 3
  %offset = getelementptr inbounds %struct.Buffer, ptr %encoutput, i32 0, i32 2
  %4 = load i64, ptr %offset, align 8
  %tobool1 = icmp ne i64 %4, 0
  br i1 %tobool1, label %if.then2, label %if.end3

if.then2:                                         ; preds = %if.end
  %5 = load i32, ptr %cond, align 4
  %or = or i32 %5, 4
  store i32 %or, ptr %cond, align 4
  br label %if.end3

if.end3:                                          ; preds = %if.then2, %if.end
  %6 = load ptr, ptr %ioc.addr, align 8
  %encinput = getelementptr inbounds %struct.QIOChannelWebsock, ptr %6, i32 0, i32 2
  %offset4 = getelementptr inbounds %struct.Buffer, ptr %encinput, i32 0, i32 2
  %7 = load i64, ptr %offset4, align 8
  %cmp = icmp ult i64 %7, 8192
  br i1 %cmp, label %land.lhs.true, label %if.end8

land.lhs.true:                                    ; preds = %if.end3
  %8 = load ptr, ptr %ioc.addr, align 8
  %io_eof = getelementptr inbounds %struct.QIOChannelWebsock, ptr %8, i32 0, i32 10
  %9 = load i32, ptr %io_eof, align 8
  %tobool5 = icmp ne i32 %9, 0
  br i1 %tobool5, label %if.end8, label %if.then6

if.then6:                                         ; preds = %land.lhs.true
  %10 = load i32, ptr %cond, align 4
  %or7 = or i32 %10, 1
  store i32 %or7, ptr %cond, align 4
  br label %if.end8

if.end8:                                          ; preds = %if.then6, %land.lhs.true, %if.end3
  %11 = load i32, ptr %cond, align 4
  %tobool9 = icmp ne i32 %11, 0
  br i1 %tobool9, label %if.then10, label %if.end12

if.then10:                                        ; preds = %if.end8
  %12 = load ptr, ptr %ioc.addr, align 8
  %call = call ptr @object_ref(ptr noundef %12)
  %13 = load ptr, ptr %ioc.addr, align 8
  %master = getelementptr inbounds %struct.QIOChannelWebsock, ptr %13, i32 0, i32 1
  %14 = load ptr, ptr %master, align 8
  %15 = load i32, ptr %cond, align 4
  %16 = load ptr, ptr %ioc.addr, align 8
  %call11 = call i32 @qio_channel_add_watch(ptr noundef %14, i32 noundef %15, ptr noundef @qio_channel_websock_flush, ptr noundef %16, ptr noundef @qio_channel_websock_flush_free)
  %17 = load ptr, ptr %ioc.addr, align 8
  %io_tag = getelementptr inbounds %struct.QIOChannelWebsock, ptr %17, i32 0, i32 8
  store i32 %call11, ptr %io_tag, align 4
  br label %if.end12

if.end12:                                         ; preds = %if.then10, %if.end8, %if.then
  ret void
}

; Function Attrs: nounwind sspstrong uwtable
define internal void @qio_channel_websock_unset_watch(ptr noundef %ioc) #0 {
entry:
  %ioc.addr = alloca ptr, align 8
  store ptr %ioc, ptr %ioc.addr, align 8
  %0 = load ptr, ptr %ioc.addr, align 8
  %io_tag = getelementptr inbounds %struct.QIOChannelWebsock, ptr %0, i32 0, i32 8
  %1 = load i32, ptr %io_tag, align 4
  %tobool = icmp ne i32 %1, 0
  br i1 %tobool, label %if.then, label %if.end

if.then:                                          ; preds = %entry
  %2 = load ptr, ptr %ioc.addr, align 8
  %io_tag1 = getelementptr inbounds %struct.QIOChannelWebsock, ptr %2, i32 0, i32 8
  %3 = load i32, ptr %io_tag1, align 4
  %call = call i32 @g_source_remove(i32 noundef %3)
  %4 = load ptr, ptr %ioc.addr, align 8
  %io_tag2 = getelementptr inbounds %struct.QIOChannelWebsock, ptr %4, i32 0, i32 8
  store i32 0, ptr %io_tag2, align 4
  br label %if.end

if.end:                                           ; preds = %if.then, %entry
  ret void
}

; Function Attrs: nounwind sspstrong uwtable
define internal i64 @qio_channel_websock_write_wire(ptr noundef %ioc, ptr noundef %errp) #0 {
entry:
  %retval = alloca i64, align 8
  %ioc.addr = alloca ptr, align 8
  %errp.addr = alloca ptr, align 8
  %ret = alloca i64, align 8
  %done = alloca i64, align 8
  store ptr %ioc, ptr %ioc.addr, align 8
  store ptr %errp, ptr %errp.addr, align 8
  store i64 0, ptr %done, align 8
  br label %while.cond

while.cond:                                       ; preds = %if.end14, %entry
  %0 = load ptr, ptr %ioc.addr, align 8
  %encoutput = getelementptr inbounds %struct.QIOChannelWebsock, ptr %0, i32 0, i32 3
  %offset = getelementptr inbounds %struct.Buffer, ptr %encoutput, i32 0, i32 2
  %1 = load i64, ptr %offset, align 8
  %cmp = icmp ugt i64 %1, 0
  br i1 %cmp, label %while.body, label %while.end

while.body:                                       ; preds = %while.cond
  %2 = load ptr, ptr %ioc.addr, align 8
  %master = getelementptr inbounds %struct.QIOChannelWebsock, ptr %2, i32 0, i32 1
  %3 = load ptr, ptr %master, align 8
  %4 = load ptr, ptr %ioc.addr, align 8
  %encoutput1 = getelementptr inbounds %struct.QIOChannelWebsock, ptr %4, i32 0, i32 3
  %buffer = getelementptr inbounds %struct.Buffer, ptr %encoutput1, i32 0, i32 4
  %5 = load ptr, ptr %buffer, align 8
  %6 = load ptr, ptr %ioc.addr, align 8
  %encoutput2 = getelementptr inbounds %struct.QIOChannelWebsock, ptr %6, i32 0, i32 3
  %offset3 = getelementptr inbounds %struct.Buffer, ptr %encoutput2, i32 0, i32 2
  %7 = load i64, ptr %offset3, align 8
  %8 = load ptr, ptr %errp.addr, align 8
  %call = call i64 @qio_channel_write(ptr noundef %3, ptr noundef %5, i64 noundef %7, ptr noundef %8)
  store i64 %call, ptr %ret, align 8
  %9 = load i64, ptr %ret, align 8
  %cmp4 = icmp slt i64 %9, 0
  br i1 %cmp4, label %if.then, label %if.end

if.then:                                          ; preds = %while.body
  %10 = load i64, ptr %ret, align 8
  %cmp5 = icmp eq i64 %10, -2
  br i1 %cmp5, label %land.lhs.true, label %if.else

land.lhs.true:                                    ; preds = %if.then
  %11 = load i64, ptr %done, align 8
  %cmp6 = icmp sgt i64 %11, 0
  br i1 %cmp6, label %if.then7, label %if.else

if.then7:                                         ; preds = %land.lhs.true
  %12 = load i64, ptr %done, align 8
  store i64 %12, ptr %retval, align 8
  br label %return

if.else:                                          ; preds = %land.lhs.true, %if.then
  %13 = load i64, ptr %ret, align 8
  store i64 %13, ptr %retval, align 8
  br label %return

if.end:                                           ; preds = %while.body
  %14 = load ptr, ptr %ioc.addr, align 8
  %encoutput8 = getelementptr inbounds %struct.QIOChannelWebsock, ptr %14, i32 0, i32 3
  %15 = load i64, ptr %ret, align 8
  call void @buffer_advance(ptr noundef %encoutput8, i64 noundef %15)
  %16 = load i64, ptr %ret, align 8
  %17 = load i64, ptr %done, align 8
  %add = add i64 %17, %16
  store i64 %add, ptr %done, align 8
  %18 = load ptr, ptr %ioc.addr, align 8
  %pong_remain = getelementptr inbounds %struct.QIOChannelWebsock, ptr %18, i32 0, i32 6
  %19 = load i64, ptr %pong_remain, align 8
  %20 = load i64, ptr %ret, align 8
  %cmp9 = icmp ult i64 %19, %20
  br i1 %cmp9, label %if.then10, label %if.else12

if.then10:                                        ; preds = %if.end
  %21 = load ptr, ptr %ioc.addr, align 8
  %pong_remain11 = getelementptr inbounds %struct.QIOChannelWebsock, ptr %21, i32 0, i32 6
  store i64 0, ptr %pong_remain11, align 8
  br label %if.end14

if.else12:                                        ; preds = %if.end
  %22 = load i64, ptr %ret, align 8
  %23 = load ptr, ptr %ioc.addr, align 8
  %pong_remain13 = getelementptr inbounds %struct.QIOChannelWebsock, ptr %23, i32 0, i32 6
  %24 = load i64, ptr %pong_remain13, align 8
  %sub = sub i64 %24, %22
  store i64 %sub, ptr %pong_remain13, align 8
  br label %if.end14

if.end14:                                         ; preds = %if.else12, %if.then10
  br label %while.cond, !llvm.loop !13

while.end:                                        ; preds = %while.cond
  %25 = load i64, ptr %done, align 8
  store i64 %25, ptr %retval, align 8
  br label %return

return:                                           ; preds = %while.end, %if.else, %if.then7
  %26 = load i64, ptr %retval, align 8
  ret i64 %26
}

; Function Attrs: nounwind sspstrong uwtable
define internal ptr @QIO_CHANNEL_WEBSOCK(ptr noundef %obj) #0 {
entry:
  %obj.addr = alloca ptr, align 8
  store ptr %obj, ptr %obj.addr, align 8
  %0 = load ptr, ptr %obj.addr, align 8
  %call = call ptr @object_dynamic_cast_assert(ptr noundef %0, ptr noundef @.str, ptr noundef @.str.1, i32 noundef 30, ptr noundef @__func__.QIO_CHANNEL_WEBSOCK)
  ret ptr %call
}

; Function Attrs: nounwind sspstrong uwtable
define internal i64 @qio_channel_websock_writev(ptr noundef %ioc, ptr noundef %iov, i64 noundef %niov, ptr noundef %fds, i64 noundef %nfds, i32 noundef %flags, ptr noundef %errp) #0 {
entry:
  %retval = alloca i64, align 8
  %ioc.addr = alloca ptr, align 8
  %iov.addr = alloca ptr, align 8
  %niov.addr = alloca i64, align 8
  %fds.addr = alloca ptr, align 8
  %nfds.addr = alloca i64, align 8
  %flags.addr = alloca i32, align 4
  %errp.addr = alloca ptr, align 8
  %wioc = alloca ptr, align 8
  %want = alloca i64, align 8
  %avail = alloca i64, align 8
  %ret = alloca i64, align 8
  store ptr %ioc, ptr %ioc.addr, align 8
  store ptr %iov, ptr %iov.addr, align 8
  store i64 %niov, ptr %niov.addr, align 8
  store ptr %fds, ptr %fds.addr, align 8
  store i64 %nfds, ptr %nfds.addr, align 8
  store i32 %flags, ptr %flags.addr, align 4
  store ptr %errp, ptr %errp.addr, align 8
  %0 = load ptr, ptr %ioc.addr, align 8
  %call = call ptr @QIO_CHANNEL_WEBSOCK(ptr noundef %0)
  store ptr %call, ptr %wioc, align 8
  %1 = load ptr, ptr %iov.addr, align 8
  %2 = load i64, ptr %niov.addr, align 8
  %conv = trunc i64 %2 to i32
  %call1 = call i64 @iov_size(ptr noundef %1, i32 noundef %conv)
  store i64 %call1, ptr %want, align 8
  %3 = load ptr, ptr %wioc, align 8
  %io_err = getelementptr inbounds %struct.QIOChannelWebsock, ptr %3, i32 0, i32 9
  %4 = load ptr, ptr %io_err, align 8
  %tobool = icmp ne ptr %4, null
  br i1 %tobool, label %if.then, label %if.end

if.then:                                          ; preds = %entry
  %5 = load ptr, ptr %errp.addr, align 8
  %6 = load ptr, ptr %wioc, align 8
  %io_err2 = getelementptr inbounds %struct.QIOChannelWebsock, ptr %6, i32 0, i32 9
  %7 = load ptr, ptr %io_err2, align 8
  %call3 = call ptr @error_copy(ptr noundef %7)
  call void @error_propagate(ptr noundef %5, ptr noundef %call3)
  store i64 -1, ptr %retval, align 8
  br label %return

if.end:                                           ; preds = %entry
  %8 = load ptr, ptr %wioc, align 8
  %io_eof = getelementptr inbounds %struct.QIOChannelWebsock, ptr %8, i32 0, i32 10
  %9 = load i32, ptr %io_eof, align 8
  %tobool4 = icmp ne i32 %9, 0
  br i1 %tobool4, label %if.then5, label %if.end6

if.then5:                                         ; preds = %if.end
  %10 = load ptr, ptr %errp.addr, align 8
  call void (ptr, ptr, i32, ptr, ptr, ...) @error_setg_internal(ptr noundef %10, ptr noundef @.str.12, i32 noundef 1145, ptr noundef @__func__.qio_channel_websock_writev, ptr noundef @.str.65, ptr noundef @.str.66)
  store i64 -1, ptr %retval, align 8
  br label %return

if.end6:                                          ; preds = %if.end
  %11 = load ptr, ptr %wioc, align 8
  %encoutput = getelementptr inbounds %struct.QIOChannelWebsock, ptr %11, i32 0, i32 3
  %offset = getelementptr inbounds %struct.Buffer, ptr %encoutput, i32 0, i32 2
  %12 = load i64, ptr %offset, align 8
  %cmp = icmp uge i64 %12, 8192
  br i1 %cmp, label %cond.true, label %cond.false

cond.true:                                        ; preds = %if.end6
  br label %cond.end

cond.false:                                       ; preds = %if.end6
  %13 = load ptr, ptr %wioc, align 8
  %encoutput8 = getelementptr inbounds %struct.QIOChannelWebsock, ptr %13, i32 0, i32 3
  %offset9 = getelementptr inbounds %struct.Buffer, ptr %encoutput8, i32 0, i32 2
  %14 = load i64, ptr %offset9, align 8
  %sub = sub i64 8192, %14
  br label %cond.end

cond.end:                                         ; preds = %cond.false, %cond.true
  %cond = phi i64 [ 0, %cond.true ], [ %sub, %cond.false ]
  store i64 %cond, ptr %avail, align 8
  %15 = load i64, ptr %want, align 8
  %16 = load i64, ptr %avail, align 8
  %cmp10 = icmp sgt i64 %15, %16
  br i1 %cmp10, label %if.then12, label %if.end13

if.then12:                                        ; preds = %cond.end
  %17 = load i64, ptr %avail, align 8
  store i64 %17, ptr %want, align 8
  br label %if.end13

if.end13:                                         ; preds = %if.then12, %cond.end
  %18 = load i64, ptr %want, align 8
  %tobool14 = icmp ne i64 %18, 0
  br i1 %tobool14, label %if.then15, label %if.end16

if.then15:                                        ; preds = %if.end13
  %19 = load ptr, ptr %wioc, align 8
  %20 = load ptr, ptr %iov.addr, align 8
  %21 = load i64, ptr %niov.addr, align 8
  %22 = load i64, ptr %want, align 8
  call void @qio_channel_websock_encode(ptr noundef %19, i8 noundef zeroext 2, ptr noundef %20, i64 noundef %21, i64 noundef %22)
  br label %if.end16

if.end16:                                         ; preds = %if.then15, %if.end13
  %23 = load ptr, ptr %wioc, align 8
  %24 = load ptr, ptr %errp.addr, align 8
  %call17 = call i64 @qio_channel_websock_write_wire(ptr noundef %23, ptr noundef %24)
  store i64 %call17, ptr %ret, align 8
  %25 = load i64, ptr %ret, align 8
  %cmp18 = icmp slt i64 %25, 0
  br i1 %cmp18, label %land.lhs.true, label %if.end23

land.lhs.true:                                    ; preds = %if.end16
  %26 = load i64, ptr %ret, align 8
  %cmp20 = icmp ne i64 %26, -2
  br i1 %cmp20, label %if.then22, label %if.end23

if.then22:                                        ; preds = %land.lhs.true
  %27 = load ptr, ptr %wioc, align 8
  call void @qio_channel_websock_unset_watch(ptr noundef %27)
  store i64 -1, ptr %retval, align 8
  br label %return

if.end23:                                         ; preds = %land.lhs.true, %if.end16
  %28 = load ptr, ptr %wioc, align 8
  call void @qio_channel_websock_set_watch(ptr noundef %28)
  %29 = load i64, ptr %want, align 8
  %cmp24 = icmp eq i64 %29, 0
  br i1 %cmp24, label %if.then26, label %if.end27

if.then26:                                        ; preds = %if.end23
  store i64 -2, ptr %retval, align 8
  br label %return

if.end27:                                         ; preds = %if.end23
  %30 = load i64, ptr %want, align 8
  store i64 %30, ptr %retval, align 8
  br label %return

return:                                           ; preds = %if.end27, %if.then26, %if.then22, %if.then5, %if.then
  %31 = load i64, ptr %retval, align 8
  ret i64 %31
}