; Function Attrs: nounwind sspstrong uwtable
define internal range(i64 -9223372036854775808, 8193) i64 @qio_channel_websock_writev(ptr noundef %ioc, ptr noundef %iov, i64 noundef %niov, ptr readnone captures(none) %fds, i64 %nfds, i32 %flags, ptr noundef %errp) #0 {
entry:
  %call.i = tail call ptr @object_dynamic_cast_assert(ptr noundef %ioc, ptr noundef nonnull @.str, ptr noundef nonnull @.str.1, i32 noundef 30, ptr noundef nonnull @__func__.QIO_CHANNEL_WEBSOCK) #15
  %conv = trunc i64 %niov to i32
  %call1 = tail call i64 @iov_size(ptr noundef %iov, i32 noundef %conv) #15
  %io_err = getelementptr inbounds nuw i8, ptr %call.i, i64 248
  %0 = load ptr, ptr %io_err, align 8
  %tobool.not = icmp eq ptr %0, null
  br i1 %tobool.not, label %if.end, label %if.then

if.then:                                          ; preds = %entry
  %call3 = tail call ptr @error_copy(ptr noundef nonnull %0) #15
  tail call void @error_propagate(ptr noundef %errp, ptr noundef %call3) #15
  br label %return

if.end:                                           ; preds = %entry
  %io_eof = getelementptr inbounds nuw i8, ptr %call.i, i64 256
  %1 = load i32, ptr %io_eof, align 8
  %tobool4.not = icmp eq i32 %1, 0
  br i1 %tobool4.not, label %if.end6, label %if.then5

if.then5:                                         ; preds = %if.end
  tail call void (ptr, ptr, i32, ptr, ptr, ...) @error_setg_internal(ptr noundef %errp, ptr noundef nonnull @.str.12, i32 noundef 1145, ptr noundef nonnull @__func__.qio_channel_websock_writev, ptr noundef nonnull @.str.65, ptr noundef nonnull @.str.66) #15
  br label %return

if.end6:                                          ; preds = %if.end
  %offset = getelementptr inbounds nuw i8, ptr %call.i, i64 160
  %2 = load i64, ptr %offset, align 8
  %cmp = icmp ugt i64 %2, 8191
  %sub = sub nuw nsw i64 8192, %2
  %spec.select = select i1 %cmp, i64 0, i64 %sub
  %want.0 = tail call i64 @llvm.smin.i64(i64 %call1, i64 %spec.select)
  %tobool14.not = icmp eq i64 %want.0, 0
  br i1 %tobool14.not, label %if.end16, label %if.then15

if.then15:                                        ; preds = %if.end6
  tail call fastcc void @qio_channel_websock_encode(ptr noundef nonnull %call.i, i8 noundef zeroext 2, ptr noundef %iov, i64 noundef %niov, i64 noundef %want.0)
  %.pre = load i64, ptr %offset, align 8
  br label %if.end16

if.end16:                                         ; preds = %if.then15, %if.end6
  %3 = phi i64 [ %.pre, %if.then15 ], [ %2, %if.end6 ]
  %encoutput.i = getelementptr inbounds nuw i8, ptr %call.i, i64 144
  %cmp.not19.i = icmp eq i64 %3, 0
  br i1 %cmp.not19.i, label %if.end23, label %while.body.lr.ph.i

while.body.lr.ph.i:                               ; preds = %if.end16
  %master.i = getelementptr inbounds nuw i8, ptr %call.i, i64 96
  %buffer.i = getelementptr inbounds nuw i8, ptr %call.i, i64 176
  %pong_remain.i = getelementptr inbounds nuw i8, ptr %call.i, i64 232
  br label %while.body.i

while.body.i:                                     ; preds = %if.end.i, %while.body.lr.ph.i
  %4 = phi i64 [ %3, %while.body.lr.ph.i ], [ %8, %if.end.i ]
  %done.020.i = phi i64 [ 0, %while.body.lr.ph.i ], [ %add.i, %if.end.i ]
  %5 = load ptr, ptr %master.i, align 8
  %6 = load ptr, ptr %buffer.i, align 8
  %call.i20 = tail call i64 @qio_channel_write(ptr noundef %5, ptr noundef %6, i64 noundef %4, ptr noundef %errp) #15
  %cmp4.i = icmp slt i64 %call.i20, 0
  br i1 %cmp4.i, label %if.then.i, label %if.end.i

if.then.i:                                        ; preds = %while.body.i
  %cmp5.i = icmp eq i64 %call.i20, -2
  %cmp6.i = icmp sgt i64 %done.020.i, 0
  %or.cond.i = select i1 %cmp5.i, i1 %cmp6.i, i1 false
  %done.0.call.i = select i1 %or.cond.i, i64 %done.020.i, i64 %call.i20
  br label %qio_channel_websock_write_wire.exit

if.end.i:                                         ; preds = %while.body.i
  tail call void @buffer_advance(ptr noundef nonnull %encoutput.i, i64 noundef %call.i20) #15
  %add.i = add i64 %call.i20, %done.020.i
  %7 = load i64, ptr %pong_remain.i, align 8
  %storemerge.i = tail call i64 @llvm.usub.sat.i64(i64 %7, i64 %call.i20)
  store i64 %storemerge.i, ptr %pong_remain.i, align 8
  %8 = load i64, ptr %offset, align 8
  %cmp.not.i = icmp eq i64 %8, 0
  br i1 %cmp.not.i, label %qio_channel_websock_write_wire.exit, label %while.body.i, !llvm.loop !10

qio_channel_websock_write_wire.exit:              ; preds = %if.end.i, %if.then.i
  %retval.0.i = phi i64 [ %done.0.call.i, %if.then.i ], [ %add.i, %if.end.i ]
  %cmp18 = icmp slt i64 %retval.0.i, 0
  %cmp20 = icmp ne i64 %retval.0.i, -2
  %or.cond = and i1 %cmp18, %cmp20
  br i1 %or.cond, label %if.then22, label %if.end23

if.then22:                                        ; preds = %qio_channel_websock_write_wire.exit
  %io_tag.i = getelementptr inbounds nuw i8, ptr %call.i, i64 244
  %9 = load i32, ptr %io_tag.i, align 4
  %tobool.not.i = icmp eq i32 %9, 0
  br i1 %tobool.not.i, label %return, label %if.then.i21

if.then.i21:                                      ; preds = %if.then22
  %call.i22 = tail call i32 @g_source_remove(i32 noundef %9) #15
  store i32 0, ptr %io_tag.i, align 4
  br label %return

if.end23:                                         ; preds = %if.end16, %qio_channel_websock_write_wire.exit
  %io_tag.i.i = getelementptr inbounds nuw i8, ptr %call.i, i64 244
  %10 = load i32, ptr %io_tag.i.i, align 4
  %tobool.not.i.i = icmp eq i32 %10, 0
  br i1 %tobool.not.i.i, label %qio_channel_websock_unset_watch.exit.i, label %if.then.i.i

if.then.i.i:                                      ; preds = %if.end23
  %call.i.i = tail call i32 @g_source_remove(i32 noundef %10) #15
  store i32 0, ptr %io_tag.i.i, align 4
  br label %qio_channel_websock_unset_watch.exit.i

qio_channel_websock_unset_watch.exit.i:           ; preds = %if.then.i.i, %if.end23
  %11 = load ptr, ptr %io_err, align 8
  %tobool.not.i24 = icmp eq ptr %11, null
  br i1 %tobool.not.i24, label %if.end.i25, label %qio_channel_websock_set_watch.exit

if.end.i25:                                       ; preds = %qio_channel_websock_unset_watch.exit.i
  %12 = load i64, ptr %offset, align 8
  %tobool1.not.i = icmp ne i64 %12, 0
  %offset4.i = getelementptr inbounds nuw i8, ptr %call.i, i64 120
  %13 = load i64, ptr %offset4.i, align 8
  %cmp.i = icmp ult i64 %13, 8192
  br i1 %cmp.i, label %land.lhs.true.i, label %if.end8.i

land.lhs.true.i:                                  ; preds = %if.end.i25
  %spec.select.i = select i1 %tobool1.not.i, i32 4, i32 0
  %14 = load i32, ptr %io_eof, align 8
  %tobool5.not.i = icmp eq i32 %14, 0
  %brmerge.i = select i1 %tobool5.not.i, i1 true, i1 %tobool1.not.i
  %or7.i = zext i1 %tobool5.not.i to i32
  %or7.mux.i = or disjoint i32 %spec.select.i, %or7.i
  br i1 %brmerge.i, label %if.then10.i, label %qio_channel_websock_set_watch.exit

if.end8.i:                                        ; preds = %if.end.i25
  br i1 %tobool1.not.i, label %if.then10.i, label %qio_channel_websock_set_watch.exit

if.then10.i:                                      ; preds = %if.end8.i, %land.lhs.true.i
  %cond.115.i = phi i32 [ 4, %if.end8.i ], [ %or7.mux.i, %land.lhs.true.i ]
  %call.i27 = tail call ptr @object_ref(ptr noundef nonnull %call.i) #15
  %master.i28 = getelementptr inbounds nuw i8, ptr %call.i, i64 96
  %15 = load ptr, ptr %master.i28, align 8
  %call11.i = tail call i32 @qio_channel_add_watch(ptr noundef %15, i32 noundef %cond.115.i, ptr noundef nonnull @qio_channel_websock_flush, ptr noundef nonnull %call.i, ptr noundef nonnull @qio_channel_websock_flush_free) #15
  store i32 %call11.i, ptr %io_tag.i.i, align 4
  br label %qio_channel_websock_set_watch.exit

qio_channel_websock_set_watch.exit:               ; preds = %qio_channel_websock_unset_watch.exit.i, %land.lhs.true.i, %if.end8.i, %if.then10.i
  %.want.0 = select i1 %tobool14.not, i64 -2, i64 %want.0
  br label %return

return:                                           ; preds = %if.then.i21, %if.then22, %qio_channel_websock_set_watch.exit, %if.then5, %if.then
  %retval.0 = phi i64 [ -1, %if.then ], [ -1, %if.then5 ], [ %.want.0, %qio_channel_websock_set_watch.exit ], [ -1, %if.then22 ], [ -1, %if.then.i21 ]
  ret i64 %retval.0
}